target datalayout = "e-m:e-p270:32:32-p271:32:32-p272:64:64-i64:64-i128:128-f80:128-n8:16:32:64-S128"
target triple = "x86_64-unknown-linux-gnu"

%"class.node::tracing::TracedValue" = type <{ %"class.v8::ConvertableToTraceFormat", %"class.std::__cxx11::basic_string", i8, i8, [6 x i8] }>
%"class.v8::ConvertableToTraceFormat" = type { ptr }
%"class.std::__cxx11::basic_string" = type { %"struct.std::__cxx11::basic_string<char>::_Alloc_hider", i64, %union.anon }
%"struct.std::__cxx11::basic_string<char>::_Alloc_hider" = type { ptr }
%union.anon = type { i64, [8 x i8] }

@_ZTVN2v824ConvertableToTraceFormatE = linkonce_odr dso_local unnamed_addr constant { [5 x ptr] } { [5 x ptr] [ptr null, ptr null, ptr @_ZN2v824ConvertableToTraceFormatD2Ev, ptr @_ZN2v824ConvertableToTraceFormatD0Ev, ptr @__cxa_pure_virtual] }, comdat, align 8

; Function Attrs: mustprogress nounwind uwtable
define linkonce_odr dso_local void @_ZN2v824ConvertableToTraceFormatC2Ev(ptr noundef nonnull align 8 dereferenceable(8) %this) unnamed_addr #0 comdat align 2 {
entry:
  %this.addr = alloca ptr, align 8
  store ptr %this, ptr %this.addr, align 8
  %this1 = load ptr, ptr %this.addr, align 8
  store ptr getelementptr inbounds ({ [5 x ptr] }, ptr @_ZTVN2v824ConvertableToTraceFormatE, i32 0, i32 0, i32 2), ptr %this1, align 8
  ret void
}

; Function Attrs: mustprogress nounwind uwtable
define dso_local void @_ZN4node7tracing11TracedValueC2Eb(ptr noundef nonnull align 8 dereferenceable(42) %this, i1 noundef zeroext %root_is_array) unnamed_addr #0 align 2 {
entry:
  %this.addr = alloca ptr, align 8
  %root_is_array.addr = alloca i8, align 1
  store ptr %this, ptr %this.addr, align 8
  %frombool = zext i1 %root_is_array to i8
  store i8 %frombool, ptr %root_is_array.addr, align 1
  %this1 = load ptr, ptr %this.addr, align 8
  call void @_ZN2v824ConvertableToTraceFormatC2Ev(ptr noundef nonnull align 8 dereferenceable(8) %this1) #9
  store ptr getelementptr inbounds ({ [5 x ptr] }, ptr @_ZTVN4node7tracing11TracedValueE, i32 0, i32 0, i32 2), ptr %this1, align 8
  %data_ = getelementptr inbounds %"class.node::tracing::TracedValue", ptr %this1, i32 0, i32 1
  call void @_ZNSt7__cxx1112basic_stringIcSt11char_traitsIcESaIcEEC1Ev(ptr noundef nonnull align 8 dereferenceable(32) %data_) #9
  %first_item_ = getelementptr inbounds %"class.node::tracing::TracedValue", ptr %this1, i32 0, i32 2
  store i8 1, ptr %first_item_, align 8
  %root_is_array_ = getelementptr inbounds %"class.node::tracing::TracedValue", ptr %this1, i32 0, i32 3
  %0 = load i8, ptr %root_is_array.addr, align 1
  %tobool = trunc i8 %0 to i1
  %frombool2 = zext i1 %tobool to i8
  store i8 %frombool2, ptr %root_is_array_, align 1
  ret void
}