; Function Attrs: mustprogress nounwind uwtable
define dso_local void @_ZN4node7tracing11TracedValueC2Eb(ptr noundef nonnull align 8 dereferenceable(42) %this, i1 noundef zeroext %root_is_array) unnamed_addr #0 align 2 {
entry:
  %frombool = zext i1 %root_is_array to i8
  store ptr getelementptr inbounds ({ [5 x ptr] }, ptr @_ZTVN4node7tracing11TracedValueE, i64 0, i32 0, i64 2), ptr %this, align 8
  %data_ = getelementptr inbounds i8, ptr %this, i64 8
  tail call void @_ZNSt7__cxx1112basic_stringIcSt11char_traitsIcESaIcEEC1Ev(ptr noundef nonnull align 8 dereferenceable(32) %data_) #10
  %first_item_ = getelementptr inbounds i8, ptr %this, i64 40
  store i8 1, ptr %first_item_, align 8
  %root_is_array_ = getelementptr inbounds i8, ptr %this, i64 41
  store i8 %frombool, ptr %root_is_array_, align 1
  ret void
}